; Function Attrs: null_pointer_is_valid sspstrong uwtable
define hidden void @recent_remove_column(i32 noundef %0) local_unnamed_addr #0 {
  %2 = load ptr, ptr getelementptr inbounds nuw (i8, ptr @recent, i64 136), align 8
  %3 = tail call ptr @g_list_nth(ptr noundef %2, i32 noundef %0)
  %.not = icmp eq ptr %3, null
  br i1 %.not, label %10, label %4

4:                                                ; preds = %1
  %5 = load ptr, ptr %3, align 8
  %.not6 = icmp eq ptr %5, null
  br i1 %.not6, label %7, label %6

6:                                                ; preds = %4
  tail call void @g_free(ptr noundef nonnull %5)
  br label %7

7:                                                ; preds = %6, %4
  %8 = load ptr, ptr getelementptr inbounds nuw (i8, ptr @recent, i64 136), align 8
  %9 = tail call ptr @g_list_delete_link(ptr noundef %8, ptr noundef nonnull %3)
  store ptr %9, ptr getelementptr inbounds nuw (i8, ptr @recent, i64 136), align 8
  br label %10

10:                                               ; preds = %1, %7
  ret void
}